target datalayout = "e-m:e-p270:32:32-p271:32:32-p272:64:64-i64:64-i128:128-f80:128-n8:16:32:64-S128"
target triple = "x86_64-pc-linux-gnu"

%struct.ImVector = type { i32, i32, ptr }
%struct.ImVector.0 = type { i32, i32, ptr }
%struct.ImVector.2 = type { i32, i32, ptr }
%struct.ImGuiStorage = type { %struct.ImVector.4 }
%struct.ImVector.4 = type { i32, i32, ptr }
%struct.ImVector.19 = type { i32, i32, ptr }
%struct.ImVector.20 = type { i32, i32, ptr }
%struct.ImRect = type { %struct.ImVec2, %struct.ImVec2 }
%struct.ImVector.30 = type { i32, i32, ptr }
%struct.ImVec2 = type { float, float }
%struct.ImGuiTextBuffer = type { %struct.ImVector.28 }
%struct.ImVec4 = type { float, float, float, float }
%struct.ImVector.28 = type { i32, i32, ptr }
%struct.ImDrawListSplitter = type { i32, i32, %struct.ImVector.20 }
%struct.ImVec1 = type { float }
%struct.ImGuiTableInstanceData = type { i32, float, float, float, i32, i32 }
%struct.ImGuiTableColumn = type <{ i32, float, float, float, float, float, float, float, float, %struct.ImRect, i32, float, float, float, float, float, float, float, i16, i16, i16, i16, i16, i16, i16, i16, i16, i8, i8, i8, i8, i8, i8, i8, i8, i8, i8, i8, i8, i8, i8 }>
%struct.ImGuiWindow = type <{ ptr, ptr, i32, i32, i32, [4 x i8], ptr, %struct.ImVec2, %struct.ImVec2, %struct.ImVec2, %struct.ImVec2, %struct.ImVec2, %struct.ImVec2, %struct.ImVec2, float, float, float, float, float, float, float, float, float, float, i32, i32, i32, i32, %struct.ImVec2, %struct.ImVec2, %struct.ImVec2, %struct.ImVec2, %struct.ImVec2, %struct.ImVec2, i8, i8, i8, i8, i8, i8, i8, i8, i8, i8, i8, i8, i8, i8, i8, i8, i16, i16, i16, i16, i16, i8, i8, i8, [3 x i8], i32, i8, i8, i8, i8, i32, %struct.ImVec2, %struct.ImVec2, [4 x i8], %struct.ImVector.30, %struct.ImGuiWindowTempData, %struct.ImRect, %struct.ImRect, %struct.ImRect, %struct.ImRect, %struct.ImRect, %struct.ImRect, %struct.ImRect, %struct.ImVec2ih, %struct.ImVec2ih, i32, float, float, [4 x i8], %struct.ImGuiStorage, %struct.ImVector.35, float, i32, ptr, %struct.ImDrawList, ptr, ptr, ptr, ptr, ptr, ptr, ptr, ptr, [2 x i32], [2 x %struct.ImRect], [2 x %struct.ImVec2], i32, i32, i32, i8, [3 x i8] }>
%struct.ImGuiWindowTempData = type { %struct.ImVec2, %struct.ImVec2, %struct.ImVec2, %struct.ImVec2, %struct.ImVec2, %struct.ImVec2, %struct.ImVec2, float, float, i8, i8, %struct.ImVec1, %struct.ImVec1, %struct.ImVec1, %struct.ImVec2, i32, i16, i16, i8, i8, i8, i8, %struct.ImVec2, %struct.ImGuiMenuColumns, i32, i32, %struct.ImVector.2, ptr, ptr, i32, i32, i32, i32, float, float, %struct.ImVector.19, %struct.ImVector.19 }
%struct.ImGuiMenuColumns = type <{ i32, i32, i16, i16, i16, i16, i16, [4 x i16], [2 x i8] }>
%struct.ImVec2ih = type { i16, i16 }
%struct.ImVector.35 = type { i32, i32, ptr }
%struct.ImDrawList = type { %struct.ImVector.36, %struct.ImVector, %struct.ImVector.37, i32, i32, ptr, ptr, ptr, %struct.ImVector.0, %struct.ImDrawCmdHeader, %struct.ImDrawListSplitter, %struct.ImVector.38, %struct.ImVector.39, float, ptr }
%struct.ImVector.36 = type { i32, i32, ptr }
%struct.ImVector.37 = type { i32, i32, ptr }
%struct.ImDrawCmdHeader = type <{ %struct.ImVec4, ptr, i32, [4 x i8] }>
%struct.ImVector.38 = type { i32, i32, ptr }
%struct.ImVector.39 = type { i32, i32, ptr }
%struct.ImGuiTable = type <{ i32, i32, ptr, ptr, %struct.ImSpan, %struct.ImSpan.41, %struct.ImSpan.42, ptr, ptr, ptr, i32, i32, i32, i32, i32, i32, i16, i16, float, float, float, float, float, float, i32, i32, [2 x i32], i32, i32, float, float, float, float, float, float, float, float, float, float, float, float, float, float, float, float, float, %struct.ImRect, %struct.ImRect, %struct.ImRect, %struct.ImRect, %struct.ImRect, %struct.ImRect, %struct.ImRect, %struct.ImRect, %struct.ImRect, ptr, ptr, %struct.ImGuiTextBuffer, ptr, %struct.ImGuiTableInstanceData, %struct.ImVector.43, %struct.ImGuiTableColumnSortSpecs, [4 x i8], %struct.ImVector.44, %struct.ImGuiTableSortSpecs, i16, i16, i16, i16, i16, i16, i16, i16, i16, i16, i16, i16, i16, i16, i16, i16, i16, i16, i16, i16, i16, i16, i16, i16, i16, i16, i16, i8, i8, i8, i8, i8, i8, i8, i8, i8, i8, i8, i8, i8, i8, i8, i8, i8, i8, i8, i8, [6 x i8] }>
%struct.ImSpan = type { ptr, ptr }
%struct.ImSpan.41 = type { ptr, ptr }
%struct.ImSpan.42 = type { ptr, ptr }
%struct.ImVector.43 = type { i32, i32, ptr }
%struct.ImGuiTableColumnSortSpecs = type <{ i32, i16, i16, i8, [3 x i8] }>
%struct.ImVector.44 = type { i32, i32, ptr }
%struct.ImGuiTableSortSpecs = type <{ ptr, i32, i8, [3 x i8] }>

; Function Attrs: inlinehint mustprogress nounwind uwtable
define linkonce_odr dso_local noundef nonnull align 4 dereferenceable(115) ptr @_ZN6ImSpanI16ImGuiTableColumnEixEi(ptr noundef nonnull align 8 dereferenceable(16) %0, i32 noundef %1) #4 comdat align 2 {
  %3 = alloca ptr, align 8
  %4 = alloca i32, align 4
  %5 = alloca ptr, align 8
  store ptr %0, ptr %3, align 8, !tbaa !335
  store i32 %1, ptr %4, align 4, !tbaa !4
  %6 = load ptr, ptr %3, align 8
  call void @llvm.lifetime.start.p0(i64 8, ptr %5) #8
  %7 = getelementptr inbounds nuw %struct.ImSpan, ptr %6, i32 0, i32 0
  %8 = load ptr, ptr %7, align 8, !tbaa !338
  %9 = load i32, ptr %4, align 4, !tbaa !4
  %10 = sext i32 %9 to i64
  %11 = getelementptr inbounds %struct.ImGuiTableColumn, ptr %8, i64 %10
  store ptr %11, ptr %5, align 8, !tbaa !259
  %12 = load ptr, ptr %5, align 8, !tbaa !259
  call void @llvm.lifetime.end.p0(i64 8, ptr %5) #8
  ret ptr %12
}

; Function Attrs: inlinehint mustprogress nounwind uwtable
define linkonce_odr dso_local noundef i64 @_Z31ImBitArrayGetStorageSizeInBytesi(i32 noundef %0) #4 comdat {
  %2 = alloca i32, align 4
  store i32 %0, ptr %2, align 4, !tbaa !4
  %3 = load i32, ptr %2, align 4, !tbaa !4
  %4 = add nsw i32 %3, 31
  %5 = ashr i32 %4, 5
  %6 = sext i32 %5 to i64
  %7 = shl i64 %6, 2
  ret i64 %7
}

; Function Attrs: mustprogress uwtable
define dso_local void @_ZN5ImGui22TableSetupDrawChannelsEP10ImGuiTable(ptr noundef %0) #0 {
  %2 = alloca ptr, align 8
  %3 = alloca i32, align 4
  %4 = alloca i32, align 4
  %5 = alloca i32, align 4
  %6 = alloca i32, align 4
  %7 = alloca i32, align 4
  %8 = alloca i32, align 4
  %9 = alloca i32, align 4
  %10 = alloca ptr, align 8
  store ptr %0, ptr %2, align 8, !tbaa !166
  call void @llvm.lifetime.start.p0(i64 4, ptr %3) #8
  %11 = load ptr, ptr %2, align 8, !tbaa !166
  %12 = getelementptr inbounds nuw %struct.ImGuiTable, ptr %11, i32 0, i32 85
  %13 = load i16, ptr %12, align 8, !tbaa !239
  %14 = sext i16 %13 to i32
  %15 = icmp sgt i32 %14, 0
  %16 = select i1 %15, i32 2, i32 1
  store i32 %16, ptr %3, align 4, !tbaa !4
  call void @llvm.lifetime.start.p0(i64 4, ptr %4) #8
  %17 = load ptr, ptr %2, align 8, !tbaa !166
  %18 = getelementptr inbounds nuw %struct.ImGuiTable, ptr %17, i32 0, i32 1
  %19 = load i32, ptr %18, align 4, !tbaa !195
  %20 = and i32 %19, 1048576
  %21 = icmp ne i32 %20, 0
  br i1 %21, label %22, label %23

22:                                               ; preds = %1
  br label %28

23:                                               ; preds = %1
  %24 = load ptr, ptr %2, align 8, !tbaa !166
  %25 = getelementptr inbounds nuw %struct.ImGuiTable, ptr %24, i32 0, i32 66
  %26 = load i16, ptr %25, align 2, !tbaa !402
  %27 = sext i16 %26 to i32
  br label %28

28:                                               ; preds = %23, %22
  %29 = phi i32 [ 1, %22 ], [ %27, %23 ]
  store i32 %29, ptr %4, align 4, !tbaa !4
  call void @llvm.lifetime.start.p0(i64 4, ptr %5) #8
  %30 = load i32, ptr %3, align 4, !tbaa !4
  %31 = mul nsw i32 1, %30
  %32 = add nsw i32 1, %31
  store i32 %32, ptr %5, align 4, !tbaa !4
  call void @llvm.lifetime.start.p0(i64 4, ptr %6) #8
  %33 = load ptr, ptr %2, align 8, !tbaa !166
  %34 = getelementptr inbounds nuw %struct.ImGuiTable, ptr %33, i32 0, i32 66
  %35 = load i16, ptr %34, align 2, !tbaa !402
  %36 = sext i16 %35 to i32
  %37 = load ptr, ptr %2, align 8, !tbaa !166
  %38 = getelementptr inbounds nuw %struct.ImGuiTable, ptr %37, i32 0, i32 13
  %39 = load i32, ptr %38, align 4, !tbaa !199
  %40 = icmp slt i32 %36, %39
  br i1 %40, label %54, label %41

41:                                               ; preds = %28
  %42 = load ptr, ptr %2, align 8, !tbaa !166
  %43 = getelementptr inbounds nuw %struct.ImGuiTable, ptr %42, i32 0, i32 9
  %44 = load ptr, ptr %43, align 8, !tbaa !342
  %45 = load ptr, ptr %2, align 8, !tbaa !166
  %46 = getelementptr inbounds nuw %struct.ImGuiTable, ptr %45, i32 0, i32 8
  %47 = load ptr, ptr %46, align 8, !tbaa !341
  %48 = load ptr, ptr %2, align 8, !tbaa !166
  %49 = getelementptr inbounds nuw %struct.ImGuiTable, ptr %48, i32 0, i32 13
  %50 = load i32, ptr %49, align 4, !tbaa !199
  %51 = call noundef i64 @_Z31ImBitArrayGetStorageSizeInBytesi(i32 noundef %50)
  %52 = call i32 @memcmp(ptr noundef %44, ptr noundef %47, i64 noundef %51) #15
  %53 = icmp ne i32 %52, 0
  br label %54

54:                                               ; preds = %41, %28
  %55 = phi i1 [ true, %28 ], [ %53, %41 ]
  %56 = select i1 %55, i32 1, i32 0
  store i32 %56, ptr %6, align 4, !tbaa !4
  call void @llvm.lifetime.start.p0(i64 4, ptr %7) #8
  %57 = load i32, ptr %5, align 4, !tbaa !4
  %58 = load i32, ptr %4, align 4, !tbaa !4
  %59 = load i32, ptr %3, align 4, !tbaa !4
  %60 = mul nsw i32 %58, %59
  %61 = add nsw i32 %57, %60
  %62 = load i32, ptr %6, align 4, !tbaa !4
  %63 = add nsw i32 %61, %62
  store i32 %63, ptr %7, align 4, !tbaa !4
  %64 = load ptr, ptr %2, align 8, !tbaa !166
  %65 = getelementptr inbounds nuw %struct.ImGuiTable, ptr %64, i32 0, i32 58
  %66 = load ptr, ptr %65, align 8, !tbaa !190
  %67 = load ptr, ptr %2, align 8, !tbaa !166
  %68 = getelementptr inbounds nuw %struct.ImGuiTable, ptr %67, i32 0, i32 56
  %69 = load ptr, ptr %68, align 8, !tbaa !197
  %70 = getelementptr inbounds nuw %struct.ImGuiWindow, ptr %69, i32 0, i32 87
  %71 = load ptr, ptr %70, align 8, !tbaa !464
  %72 = load i32, ptr %7, align 4, !tbaa !4
  call void @_ZN18ImDrawListSplitter5SplitEP10ImDrawListi(ptr noundef nonnull align 8 dereferenceable(24) %66, ptr noundef %71, i32 noundef %72)
  %73 = load i32, ptr %6, align 4, !tbaa !4
  %74 = icmp sgt i32 %73, 0
  br i1 %74, label %75, label %78

75:                                               ; preds = %54
  %76 = load i32, ptr %7, align 4, !tbaa !4
  %77 = sub nsw i32 %76, 1
  br label %79

78:                                               ; preds = %54
  br label %79

79:                                               ; preds = %78, %75
  %80 = phi i32 [ %77, %75 ], [ -1, %78 ]
  %81 = trunc i32 %80 to i16
  %82 = load ptr, ptr %2, align 8, !tbaa !166
  %83 = getelementptr inbounds nuw %struct.ImGuiTable, ptr %82, i32 0, i32 89
  store i16 %81, ptr %83, align 8, !tbaa !466
  %84 = load ptr, ptr %2, align 8, !tbaa !166
  %85 = getelementptr inbounds nuw %struct.ImGuiTable, ptr %84, i32 0, i32 90
  store i16 1, ptr %85, align 2, !tbaa !467
  %86 = load ptr, ptr %2, align 8, !tbaa !166
  %87 = getelementptr inbounds nuw %struct.ImGuiTable, ptr %86, i32 0, i32 85
  %88 = load i16, ptr %87, align 8, !tbaa !239
  %89 = sext i16 %88 to i32
  %90 = icmp sgt i32 %89, 0
  br i1 %90, label %91, label %94

91:                                               ; preds = %79
  %92 = load i32, ptr %4, align 4, !tbaa !4
  %93 = add nsw i32 2, %92
  br label %95

94:                                               ; preds = %79
  br label %95

95:                                               ; preds = %94, %91
  %96 = phi i32 [ %93, %91 ], [ 1, %94 ]
  %97 = trunc i32 %96 to i16
  %98 = load ptr, ptr %2, align 8, !tbaa !166
  %99 = getelementptr inbounds nuw %struct.ImGuiTable, ptr %98, i32 0, i32 91
  store i16 %97, ptr %99, align 4, !tbaa !468
  call void @llvm.lifetime.start.p0(i64 4, ptr %8) #8
  store i32 2, ptr %8, align 4, !tbaa !4
  call void @llvm.lifetime.start.p0(i64 4, ptr %9) #8
  store i32 0, ptr %9, align 4, !tbaa !4
  br label %100

100:                                              ; preds = %165, %95
  %101 = load i32, ptr %9, align 4, !tbaa !4
  %102 = load ptr, ptr %2, align 8, !tbaa !166
  %103 = getelementptr inbounds nuw %struct.ImGuiTable, ptr %102, i32 0, i32 13
  %104 = load i32, ptr %103, align 4, !tbaa !199
  %105 = icmp slt i32 %101, %104
  br i1 %105, label %107, label %106

106:                                              ; preds = %100
  call void @llvm.lifetime.end.p0(i64 4, ptr %9) #8
  br label %168

107:                                              ; preds = %100
  call void @llvm.lifetime.start.p0(i64 8, ptr %10) #8
  %108 = load ptr, ptr %2, align 8, !tbaa !166
  %109 = getelementptr inbounds nuw %struct.ImGuiTable, ptr %108, i32 0, i32 4
  %110 = load i32, ptr %9, align 4, !tbaa !4
  %111 = call noundef nonnull align 4 dereferenceable(115) ptr @_ZN6ImSpanI16ImGuiTableColumnEixEi(ptr noundef nonnull align 8 dereferenceable(16) %109, i32 noundef %110)
  store ptr %111, ptr %10, align 8, !tbaa !259
  %112 = load ptr, ptr %10, align 8, !tbaa !259
  %113 = getelementptr inbounds nuw %struct.ImGuiTableColumn, ptr %112, i32 0, i32 30
  %114 = load i8, ptr %113, align 1, !tbaa !437, !range !64, !noundef !65
  %115 = trunc i8 %114 to i1
  br i1 %115, label %116, label %151

116:                                              ; preds = %107
  %117 = load ptr, ptr %10, align 8, !tbaa !259
  %118 = getelementptr inbounds nuw %struct.ImGuiTableColumn, ptr %117, i32 0, i32 31
  %119 = load i8, ptr %118, align 2, !tbaa !436, !range !64, !noundef !65
  %120 = trunc i8 %119 to i1
  br i1 %120, label %121, label %151

121:                                              ; preds = %116
  %122 = load i32, ptr %8, align 4, !tbaa !4
  %123 = trunc i32 %122 to i16
  %124 = load ptr, ptr %10, align 8, !tbaa !259
  %125 = getelementptr inbounds nuw %struct.ImGuiTableColumn, ptr %124, i32 0, i32 25
  store i16 %123, ptr %125, align 2, !tbaa !352
  %126 = load i32, ptr %8, align 4, !tbaa !4
  %127 = load ptr, ptr %2, align 8, !tbaa !166
  %128 = getelementptr inbounds nuw %struct.ImGuiTable, ptr %127, i32 0, i32 85
  %129 = load i16, ptr %128, align 8, !tbaa !239
  %130 = sext i16 %129 to i32
  %131 = icmp sgt i32 %130, 0
  br i1 %131, label %132, label %135

132:                                              ; preds = %121
  %133 = load i32, ptr %4, align 4, !tbaa !4
  %134 = add nsw i32 %133, 1
  br label %136

135:                                              ; preds = %121
  br label %136

136:                                              ; preds = %135, %132
  %137 = phi i32 [ %134, %132 ], [ 0, %135 ]
  %138 = add nsw i32 %126, %137
  %139 = trunc i32 %138 to i16
  %140 = load ptr, ptr %10, align 8, !tbaa !259
  %141 = getelementptr inbounds nuw %struct.ImGuiTableColumn, ptr %140, i32 0, i32 26
  store i16 %139, ptr %141, align 4, !tbaa !351
  %142 = load ptr, ptr %2, align 8, !tbaa !166
  %143 = getelementptr inbounds nuw %struct.ImGuiTable, ptr %142, i32 0, i32 1
  %144 = load i32, ptr %143, align 4, !tbaa !195
  %145 = and i32 %144, 1048576
  %146 = icmp ne i32 %145, 0
  br i1 %146, label %150, label %147

147:                                              ; preds = %136
  %148 = load i32, ptr %8, align 4, !tbaa !4
  %149 = add nsw i32 %148, 1
  store i32 %149, ptr %8, align 4, !tbaa !4
  br label %150

150:                                              ; preds = %147, %136
  br label %159

151:                                              ; preds = %116, %107
  %152 = load ptr, ptr %2, align 8, !tbaa !166
  %153 = getelementptr inbounds nuw %struct.ImGuiTable, ptr %152, i32 0, i32 89
  %154 = load i16, ptr %153, align 8, !tbaa !466
  %155 = load ptr, ptr %10, align 8, !tbaa !259
  %156 = getelementptr inbounds nuw %struct.ImGuiTableColumn, ptr %155, i32 0, i32 26
  store i16 %154, ptr %156, align 4, !tbaa !351
  %157 = load ptr, ptr %10, align 8, !tbaa !259
  %158 = getelementptr inbounds nuw %struct.ImGuiTableColumn, ptr %157, i32 0, i32 25
  store i16 %154, ptr %158, align 2, !tbaa !352
  br label %159

159:                                              ; preds = %151, %150
  %160 = load ptr, ptr %10, align 8, !tbaa !259
  %161 = getelementptr inbounds nuw %struct.ImGuiTableColumn, ptr %160, i32 0, i32 25
  %162 = load i16, ptr %161, align 2, !tbaa !352
  %163 = load ptr, ptr %10, align 8, !tbaa !259
  %164 = getelementptr inbounds nuw %struct.ImGuiTableColumn, ptr %163, i32 0, i32 24
  store i16 %162, ptr %164, align 4, !tbaa !353
  call void @llvm.lifetime.end.p0(i64 8, ptr %10) #8
  br label %165

165:                                              ; preds = %159
  %166 = load i32, ptr %9, align 4, !tbaa !4
  %167 = add nsw i32 %166, 1
  store i32 %167, ptr %9, align 4, !tbaa !4
  br label %100, !llvm.loop !469

168:                                              ; preds = %106
  %169 = load ptr, ptr %2, align 8, !tbaa !166
  %170 = getelementptr inbounds nuw %struct.ImGuiTable, ptr %169, i32 0, i32 49
  %171 = load ptr, ptr %2, align 8, !tbaa !166
  %172 = getelementptr inbounds nuw %struct.ImGuiTable, ptr %171, i32 0, i32 50
  call void @llvm.memcpy.p0.p0.i64(ptr align 8 %172, ptr align 8 %170, i64 16, i1 false), !tbaa.struct !206
  %173 = load ptr, ptr %2, align 8, !tbaa !166
  %174 = getelementptr inbounds nuw %struct.ImGuiTable, ptr %173, i32 0, i32 55
  %175 = load ptr, ptr %174, align 8, !tbaa !198
  %176 = getelementptr inbounds nuw %struct.ImGuiWindow, ptr %175, i32 0, i32 75
  %177 = load ptr, ptr %2, align 8, !tbaa !166
  %178 = getelementptr inbounds nuw %struct.ImGuiTable, ptr %177, i32 0, i32 51
  call void @llvm.memcpy.p0.p0.i64(ptr align 8 %178, ptr align 8 %176, i64 16, i1 false), !tbaa.struct !206
  %179 = load ptr, ptr %2, align 8, !tbaa !166
  %180 = getelementptr inbounds nuw %struct.ImGuiTable, ptr %179, i32 0, i32 53
  %181 = load ptr, ptr %2, align 8, !tbaa !166
  %182 = getelementptr inbounds nuw %struct.ImGuiTable, ptr %181, i32 0, i32 52
  call void @llvm.memcpy.p0.p0.i64(ptr align 8 %182, ptr align 8 %180, i64 16, i1 false), !tbaa.struct !206
  call void @llvm.lifetime.end.p0(i64 4, ptr %8) #8
  call void @llvm.lifetime.end.p0(i64 4, ptr %7) #8
  call void @llvm.lifetime.end.p0(i64 4, ptr %6) #8
  call void @llvm.lifetime.end.p0(i64 4, ptr %5) #8
  call void @llvm.lifetime.end.p0(i64 4, ptr %4) #8
  call void @llvm.lifetime.end.p0(i64 4, ptr %3) #8
  ret void
}