; Function Attrs: mustprogress uwtable
define dso_local void @_ZN5ImGui22TableSetupDrawChannelsEP10ImGuiTable(ptr noundef captures(none) initializes((560, 566)) %0) local_unnamed_addr #0 {
  %2 = getelementptr inbounds nuw i8, ptr %0, i64 552
  %3 = load i16, ptr %2, align 8, !tbaa !395
  %4 = icmp sgt i16 %3, 0
  %5 = getelementptr inbounds nuw i8, ptr %0, i64 4
  %6 = load i32, ptr %5, align 4, !tbaa !203
  %7 = and i32 %6, 1048576
  %.not = icmp eq i32 %7, 0
  %8 = getelementptr inbounds nuw i8, ptr %0, i64 514
  %9 = load i16, ptr %8, align 2, !tbaa !359
  %10 = sext i16 %9 to i32
  %. = select i1 %.not, i32 %10, i32 1
  %11 = select i1 %4, i32 3, i32 2
  %12 = getelementptr inbounds nuw i8, ptr %0, i64 108
  %13 = load i32, ptr %12, align 4, !tbaa !207
  %14 = icmp sgt i32 %13, %10
  br i1 %14, label %25, label %15

15:                                               ; preds = %1
  %16 = getelementptr inbounds nuw i8, ptr %0, i64 88
  %17 = load ptr, ptr %16, align 8, !tbaa !281
  %18 = getelementptr inbounds nuw i8, ptr %0, i64 80
  %19 = load ptr, ptr %18, align 8, !tbaa !280
  %20 = add nsw i32 %13, 31
  %21 = ashr i32 %20, 5
  %22 = sext i32 %21 to i64
  %23 = shl nsw i64 %22, 2
  %bcmp = tail call i32 @bcmp(ptr %17, ptr %19, i64 %23)
  %bcmp.fr = freeze i32 %bcmp
  %24 = icmp ne i32 %bcmp.fr, 0
  br label %25

25:                                               ; preds = %15, %1
  %cond.fr = phi i1 [ true, %1 ], [ %24, %15 ]
  %26 = zext i1 %cond.fr to i32
  %27 = zext i1 %4 to i32
  %28 = shl nsw i32 %., %27
  %29 = add nsw i32 %28, %11
  %30 = add nsw i32 %29, %26
  %31 = getelementptr inbounds nuw i8, ptr %0, i64 416
  %32 = load ptr, ptr %31, align 8, !tbaa !194
  %33 = getelementptr inbounds nuw i8, ptr %0, i64 392
  %34 = load ptr, ptr %33, align 8, !tbaa !205
  %35 = getelementptr inbounds nuw i8, ptr %34, i64 688
  %36 = load ptr, ptr %35, align 8, !tbaa !429
  tail call void @_ZN18ImDrawListSplitter5SplitEP10ImDrawListi(ptr noundef nonnull align 8 dereferenceable(24) %32, ptr noundef %36, i32 noundef %30)
  %37 = trunc i32 %30 to i16
  %38 = add i16 %37, -1
  %spec.select57 = select i1 %cond.fr, i16 %38, i16 -1
  %39 = getelementptr inbounds nuw i8, ptr %0, i64 560
  store i16 %spec.select57, ptr %39, align 8, !tbaa !431
  %40 = getelementptr inbounds nuw i8, ptr %0, i64 562
  store i16 1, ptr %40, align 2, !tbaa !432
  %41 = load i16, ptr %2, align 8, !tbaa !395
  %42 = trunc nsw i32 %. to i16
  %43 = add i16 %42, 2
  %.inv = icmp slt i16 %41, 1
  %44 = select i1 %.inv, i16 1, i16 %43
  %45 = getelementptr inbounds nuw i8, ptr %0, i64 564
  store i16 %44, ptr %45, align 4, !tbaa !433
  %46 = load i32, ptr %12, align 4, !tbaa !207
  %47 = icmp sgt i32 %46, 0
  br i1 %47, label %.lr.ph, label %._crit_edge

.lr.ph:                                           ; preds = %25
  %48 = getelementptr inbounds nuw i8, ptr %0, i64 24
  %49 = load ptr, ptr %48, align 8, !tbaa !271
  %50 = icmp sgt i16 %41, 0
  %51 = add nsw i32 %., 1
  %52 = select i1 %50, i32 %51, i32 0
  %wide.trip.count = zext nneg i32 %46 to i64
  br label %61

._crit_edge:                                      ; preds = %83, %25
  %53 = getelementptr inbounds nuw i8, ptr %0, i64 288
  %54 = getelementptr inbounds nuw i8, ptr %0, i64 304
  tail call void @llvm.memcpy.p0.p0.i64(ptr noundef nonnull align 8 dereferenceable(16) %54, ptr noundef nonnull align 8 dereferenceable(16) %53, i64 16, i1 false), !tbaa.struct !215
  %55 = getelementptr inbounds nuw i8, ptr %0, i64 384
  %56 = load ptr, ptr %55, align 8, !tbaa !206
  %57 = getelementptr inbounds nuw i8, ptr %56, i64 592
  %58 = getelementptr inbounds nuw i8, ptr %0, i64 320
  tail call void @llvm.memcpy.p0.p0.i64(ptr noundef nonnull align 8 dereferenceable(16) %58, ptr noundef nonnull align 8 dereferenceable(16) %57, i64 16, i1 false), !tbaa.struct !215
  %59 = getelementptr inbounds nuw i8, ptr %0, i64 352
  %60 = getelementptr inbounds nuw i8, ptr %0, i64 336
  tail call void @llvm.memcpy.p0.p0.i64(ptr noundef nonnull align 8 dereferenceable(16) %60, ptr noundef nonnull align 8 dereferenceable(16) %59, i64 16, i1 false), !tbaa.struct !215
  ret void

61:                                               ; preds = %.lr.ph, %83
  %indvars.iv = phi i64 [ 0, %.lr.ph ], [ %indvars.iv.next, %83 ]
  %.053 = phi i32 [ 2, %.lr.ph ], [ %.1, %83 ]
  %62 = getelementptr inbounds nuw %struct.ImGuiTableColumn, ptr %49, i64 %indvars.iv
  %63 = getelementptr inbounds nuw i8, ptr %62, i64 105
  %64 = load i8, ptr %63, align 1, !tbaa !400, !range !152, !noundef !153
  %65 = trunc nuw i8 %64 to i1
  br i1 %65, label %66, label %80

66:                                               ; preds = %61
  %67 = getelementptr inbounds nuw i8, ptr %62, i64 106
  %68 = load i8, ptr %67, align 2, !tbaa !399, !range !152, !noundef !153
  %69 = trunc nuw i8 %68 to i1
  br i1 %69, label %70, label %80

70:                                               ; preds = %66
  %71 = trunc i32 %.053 to i16
  %72 = getelementptr inbounds nuw i8, ptr %62, i64 98
  store i16 %71, ptr %72, align 2, !tbaa !434
  %73 = add nsw i32 %.053, %52
  %74 = trunc i32 %73 to i16
  %75 = getelementptr inbounds nuw i8, ptr %62, i64 100
  store i16 %74, ptr %75, align 4, !tbaa !435
  %76 = load i32, ptr %5, align 4, !tbaa !203
  %77 = lshr i32 %76, 20
  %78 = and i32 %77, 1
  %79 = xor i32 %78, 1
  %spec.select = add i32 %79, %.053
  br label %83

80:                                               ; preds = %66, %61
  %81 = getelementptr inbounds nuw i8, ptr %62, i64 100
  store i16 %spec.select57, ptr %81, align 4, !tbaa !435
  %82 = getelementptr inbounds nuw i8, ptr %62, i64 98
  store i16 %spec.select57, ptr %82, align 2, !tbaa !434
  br label %83

83:                                               ; preds = %70, %80
  %84 = phi i16 [ %spec.select57, %80 ], [ %71, %70 ]
  %.1 = phi i32 [ %.053, %80 ], [ %spec.select, %70 ]
  %85 = getelementptr inbounds nuw i8, ptr %62, i64 96
  store i16 %84, ptr %85, align 4, !tbaa !436
  %indvars.iv.next = add nuw nsw i64 %indvars.iv, 1
  %exitcond.not = icmp eq i64 %indvars.iv.next, %wide.trip.count
  br i1 %exitcond.not, label %._crit_edge, label %61, !llvm.loop !437
}